target datalayout = "e-m:e-p270:32:32-p271:32:32-p272:64:64-i64:64-i128:128-f80:128-n8:16:32:64-S128"
target triple = "x86_64-pc-linux-gnu"

%"class.pxrInternal_v0_24__pxrReserved__::pxr_double_conversion::Vector" = type <{ ptr, i32, [4 x i8] }>

; Function Attrs: mustprogress nounwind uwtable
define linkonce_odr noundef ptr @_ZNK32pxrInternal_v0_24__pxrReserved__21pxr_double_conversion6VectorIKcE5startEv(ptr noundef nonnull align 8 dereferenceable(12) %0) #2 comdat align 2 {
  %2 = alloca ptr, align 8
  store ptr %0, ptr %2, align 8
  %3 = load ptr, ptr %2, align 8
  %4 = getelementptr inbounds nuw %"class.pxrInternal_v0_24__pxrReserved__::pxr_double_conversion::Vector", ptr %3, i32 0, i32 0
  %5 = load ptr, ptr %4, align 8
  ret ptr %5
}

; Function Attrs: mustprogress uwtable
define linkonce_odr { ptr, i32 } @_ZN32pxrInternal_v0_24__pxrReserved__21pxr_double_conversion6VectorIKcE9SubVectorEii(ptr noundef nonnull align 8 dereferenceable(12) %0, i32 noundef %1, i32 noundef %2) #0 comdat align 2 {
  %4 = alloca %"class.pxrInternal_v0_24__pxrReserved__::pxr_double_conversion::Vector", align 8
  %5 = alloca ptr, align 8
  %6 = alloca i32, align 4
  %7 = alloca i32, align 4
  store ptr %0, ptr %5, align 8
  store i32 %1, ptr %6, align 4
  store i32 %2, ptr %7, align 4
  %8 = load ptr, ptr %5, align 8
  %9 = call noundef ptr @_ZNK32pxrInternal_v0_24__pxrReserved__21pxr_double_conversion6VectorIKcE5startEv(ptr noundef nonnull align 8 dereferenceable(12) %8)
  %10 = load i32, ptr %6, align 4
  %11 = sext i32 %10 to i64
  %12 = getelementptr inbounds i8, ptr %9, i64 %11
  %13 = load i32, ptr %7, align 4
  %14 = load i32, ptr %6, align 4
  %15 = sub nsw i32 %13, %14
  call void @_ZN32pxrInternal_v0_24__pxrReserved__21pxr_double_conversion6VectorIKcEC2EPS2_i(ptr noundef nonnull align 8 dereferenceable(12) %4, ptr noundef %12, i32 noundef %15)
  %16 = load { ptr, i32 }, ptr %4, align 8
  ret { ptr, i32 } %16
}

; Function Attrs: mustprogress nounwind uwtable
define linkonce_odr noundef nonnull align 1 dereferenceable(1) ptr @_ZNK32pxrInternal_v0_24__pxrReserved__21pxr_double_conversion6VectorIKcEixEi(ptr noundef nonnull align 8 dereferenceable(12) %0, i32 noundef %1) #2 comdat align 2 {
  %3 = alloca ptr, align 8
  %4 = alloca i32, align 4
  store ptr %0, ptr %3, align 8
  store i32 %1, ptr %4, align 4
  %5 = load ptr, ptr %3, align 8
  %6 = getelementptr inbounds nuw %"class.pxrInternal_v0_24__pxrReserved__::pxr_double_conversion::Vector", ptr %5, i32 0, i32 0
  %7 = load ptr, ptr %6, align 8
  %8 = load i32, ptr %4, align 4
  %9 = sext i32 %8 to i64
  %10 = getelementptr inbounds i8, ptr %7, i64 %9
  ret ptr %10
}

; Function Attrs: mustprogress nounwind uwtable
define linkonce_odr void @_ZN32pxrInternal_v0_24__pxrReserved__21pxr_double_conversion6VectorIKcEC2EPS2_i(ptr noundef nonnull align 8 dereferenceable(12) %0, ptr noundef %1, i32 noundef %2) unnamed_addr #2 comdat align 2 {
  %4 = alloca ptr, align 8
  %5 = alloca ptr, align 8
  %6 = alloca i32, align 4
  store ptr %0, ptr %4, align 8
  store ptr %1, ptr %5, align 8
  store i32 %2, ptr %6, align 4
  %7 = load ptr, ptr %4, align 8
  %8 = getelementptr inbounds nuw %"class.pxrInternal_v0_24__pxrReserved__::pxr_double_conversion::Vector", ptr %7, i32 0, i32 0
  %9 = load ptr, ptr %5, align 8
  store ptr %9, ptr %8, align 8
  %10 = getelementptr inbounds nuw %"class.pxrInternal_v0_24__pxrReserved__::pxr_double_conversion::Vector", ptr %7, i32 0, i32 1
  %11 = load i32, ptr %6, align 4
  store i32 %11, ptr %10, align 8
  ret void
}

; Function Attrs: mustprogress nounwind uwtable
define internal void @_ZN32pxrInternal_v0_24__pxrReserved__21pxr_double_conversionL25CutToMaxSignificantDigitsENS0_6VectorIKcEEiPcPi(ptr %0, i32 %1, i32 noundef %2, ptr noundef %3, ptr noundef %4) #2 {
  %6 = alloca %"class.pxrInternal_v0_24__pxrReserved__::pxr_double_conversion::Vector", align 8
  %7 = alloca i32, align 4
  %8 = alloca ptr, align 8
  %9 = alloca ptr, align 8
  %10 = alloca i32, align 4
  %11 = getelementptr inbounds nuw { ptr, i32 }, ptr %6, i32 0, i32 0
  store ptr %0, ptr %11, align 8
  %12 = getelementptr inbounds nuw { ptr, i32 }, ptr %6, i32 0, i32 1
  store i32 %1, ptr %12, align 8
  store i32 %2, ptr %7, align 4
  store ptr %3, ptr %8, align 8
  store ptr %4, ptr %9, align 8
  store i32 0, ptr %10, align 4
  br label %13

13:                                               ; preds = %24, %5
  %14 = load i32, ptr %10, align 4
  %15 = icmp slt i32 %14, 779
  br i1 %15, label %16, label %27

16:                                               ; preds = %13
  %17 = load i32, ptr %10, align 4
  %18 = call noundef nonnull align 1 dereferenceable(1) ptr @_ZNK32pxrInternal_v0_24__pxrReserved__21pxr_double_conversion6VectorIKcEixEi(ptr noundef nonnull align 8 dereferenceable(12) %6, i32 noundef %17)
  %19 = load i8, ptr %18, align 1
  %20 = load ptr, ptr %8, align 8
  %21 = load i32, ptr %10, align 4
  %22 = sext i32 %21 to i64
  %23 = getelementptr inbounds i8, ptr %20, i64 %22
  store i8 %19, ptr %23, align 1
  br label %24

24:                                               ; preds = %16
  %25 = load i32, ptr %10, align 4
  %26 = add nsw i32 %25, 1
  store i32 %26, ptr %10, align 4
  br label %13, !llvm.loop !12

27:                                               ; preds = %13
  %28 = load ptr, ptr %8, align 8
  %29 = getelementptr inbounds i8, ptr %28, i64 779
  store i8 49, ptr %29, align 1
  %30 = load i32, ptr %7, align 4
  %31 = call noundef i32 @_ZNK32pxrInternal_v0_24__pxrReserved__21pxr_double_conversion6VectorIKcE6lengthEv(ptr noundef nonnull align 8 dereferenceable(12) %6)
  %32 = sub nsw i32 %31, 780
  %33 = add nsw i32 %30, %32
  %34 = load ptr, ptr %9, align 8
  store i32 %33, ptr %34, align 4
  ret void
}

; Function Attrs: mustprogress nounwind uwtable
define linkonce_odr noundef i32 @_ZNK32pxrInternal_v0_24__pxrReserved__21pxr_double_conversion6VectorIKcE6lengthEv(ptr noundef nonnull align 8 dereferenceable(12) %0) #2 comdat align 2 {
  %2 = alloca ptr, align 8
  store ptr %0, ptr %2, align 8
  %3 = load ptr, ptr %2, align 8
  %4 = getelementptr inbounds nuw %"class.pxrInternal_v0_24__pxrReserved__::pxr_double_conversion::Vector", ptr %3, i32 0, i32 1
  %5 = load i32, ptr %4, align 8
  ret i32 %5
}

; Function Attrs: mustprogress uwtable
define linkonce_odr { ptr, i32 } @_ZN32pxrInternal_v0_24__pxrReserved__21pxr_double_conversion17TrimTrailingZerosENS0_6VectorIKcEE(ptr %0, i32 %1) #0 comdat {
  %3 = alloca %"class.pxrInternal_v0_24__pxrReserved__::pxr_double_conversion::Vector", align 8
  %4 = alloca %"class.pxrInternal_v0_24__pxrReserved__::pxr_double_conversion::Vector", align 8
  %5 = alloca i32, align 4
  %6 = alloca { ptr, i32 }, align 8
  %7 = getelementptr inbounds nuw { ptr, i32 }, ptr %4, i32 0, i32 0
  store ptr %0, ptr %7, align 8
  %8 = getelementptr inbounds nuw { ptr, i32 }, ptr %4, i32 0, i32 1
  store i32 %1, ptr %8, align 8
  %9 = call noundef i32 @_ZNK32pxrInternal_v0_24__pxrReserved__21pxr_double_conversion6VectorIKcE6lengthEv(ptr noundef nonnull align 8 dereferenceable(12) %4)
  %10 = sub nsw i32 %9, 1
  store i32 %10, ptr %5, align 4
  br label %11

11:                                               ; preds = %25, %2
  %12 = load i32, ptr %5, align 4
  %13 = icmp sge i32 %12, 0
  br i1 %13, label %14, label %28

14:                                               ; preds = %11
  %15 = load i32, ptr %5, align 4
  %16 = call noundef nonnull align 1 dereferenceable(1) ptr @_ZNK32pxrInternal_v0_24__pxrReserved__21pxr_double_conversion6VectorIKcEixEi(ptr noundef nonnull align 8 dereferenceable(12) %4, i32 noundef %15)
  %17 = load i8, ptr %16, align 1
  %18 = sext i8 %17 to i32
  %19 = icmp ne i32 %18, 48
  br i1 %19, label %20, label %24

20:                                               ; preds = %14
  %21 = load i32, ptr %5, align 4
  %22 = add nsw i32 %21, 1
  %23 = call { ptr, i32 } @_ZN32pxrInternal_v0_24__pxrReserved__21pxr_double_conversion6VectorIKcE9SubVectorEii(ptr noundef nonnull align 8 dereferenceable(12) %4, i32 noundef 0, i32 noundef %22)
  store { ptr, i32 } %23, ptr %6, align 8
  call void @llvm.memcpy.p0.p0.i64(ptr align 8 %3, ptr align 8 %6, i64 12, i1 false)
  br label %30

24:                                               ; preds = %14
  br label %25

25:                                               ; preds = %24
  %26 = load i32, ptr %5, align 4
  %27 = add nsw i32 %26, -1
  store i32 %27, ptr %5, align 4
  br label %11, !llvm.loop !11

28:                                               ; preds = %11
  %29 = call noundef ptr @_ZNK32pxrInternal_v0_24__pxrReserved__21pxr_double_conversion6VectorIKcE5startEv(ptr noundef nonnull align 8 dereferenceable(12) %4)
  call void @_ZN32pxrInternal_v0_24__pxrReserved__21pxr_double_conversion6VectorIKcEC2EPS2_i(ptr noundef nonnull align 8 dereferenceable(12) %3, ptr noundef %29, i32 noundef 0)
  br label %30

30:                                               ; preds = %28, %20
  %31 = load { ptr, i32 }, ptr %3, align 8
  ret { ptr, i32 } %31
}

; Function Attrs: mustprogress uwtable
define internal { ptr, i32 } @_ZN32pxrInternal_v0_24__pxrReserved__21pxr_double_conversionL16TrimLeadingZerosENS0_6VectorIKcEE(ptr %0, i32 %1) #0 {
  %3 = alloca %"class.pxrInternal_v0_24__pxrReserved__::pxr_double_conversion::Vector", align 8
  %4 = alloca %"class.pxrInternal_v0_24__pxrReserved__::pxr_double_conversion::Vector", align 8
  %5 = alloca i32, align 4
  %6 = alloca { ptr, i32 }, align 8
  %7 = getelementptr inbounds nuw { ptr, i32 }, ptr %4, i32 0, i32 0
  store ptr %0, ptr %7, align 8
  %8 = getelementptr inbounds nuw { ptr, i32 }, ptr %4, i32 0, i32 1
  store i32 %1, ptr %8, align 8
  store i32 0, ptr %5, align 4
  br label %9

9:                                                ; preds = %24, %2
  %10 = load i32, ptr %5, align 4
  %11 = call noundef i32 @_ZNK32pxrInternal_v0_24__pxrReserved__21pxr_double_conversion6VectorIKcE6lengthEv(ptr noundef nonnull align 8 dereferenceable(12) %4)
  %12 = icmp slt i32 %10, %11
  br i1 %12, label %13, label %27

13:                                               ; preds = %9
  %14 = load i32, ptr %5, align 4
  %15 = call noundef nonnull align 1 dereferenceable(1) ptr @_ZNK32pxrInternal_v0_24__pxrReserved__21pxr_double_conversion6VectorIKcEixEi(ptr noundef nonnull align 8 dereferenceable(12) %4, i32 noundef %14)
  %16 = load i8, ptr %15, align 1
  %17 = sext i8 %16 to i32
  %18 = icmp ne i32 %17, 48
  br i1 %18, label %19, label %23

19:                                               ; preds = %13
  %20 = load i32, ptr %5, align 4
  %21 = call noundef i32 @_ZNK32pxrInternal_v0_24__pxrReserved__21pxr_double_conversion6VectorIKcE6lengthEv(ptr noundef nonnull align 8 dereferenceable(12) %4)
  %22 = call { ptr, i32 } @_ZN32pxrInternal_v0_24__pxrReserved__21pxr_double_conversion6VectorIKcE9SubVectorEii(ptr noundef nonnull align 8 dereferenceable(12) %4, i32 noundef %20, i32 noundef %21)
  store { ptr, i32 } %22, ptr %6, align 8
  call void @llvm.memcpy.p0.p0.i64(ptr align 8 %3, ptr align 8 %6, i64 12, i1 false)
  br label %29

23:                                               ; preds = %13
  br label %24

24:                                               ; preds = %23
  %25 = load i32, ptr %5, align 4
  %26 = add nsw i32 %25, 1
  store i32 %26, ptr %5, align 4
  br label %9, !llvm.loop !10

27:                                               ; preds = %9
  %28 = call noundef ptr @_ZNK32pxrInternal_v0_24__pxrReserved__21pxr_double_conversion6VectorIKcE5startEv(ptr noundef nonnull align 8 dereferenceable(12) %4)
  call void @_ZN32pxrInternal_v0_24__pxrReserved__21pxr_double_conversion6VectorIKcEC2EPS2_i(ptr noundef nonnull align 8 dereferenceable(12) %3, ptr noundef %28, i32 noundef 0)
  br label %29

29:                                               ; preds = %27, %19
  %30 = load { ptr, i32 }, ptr %3, align 8
  ret { ptr, i32 } %30
}

; Function Attrs: mustprogress uwtable
define internal void @_ZN32pxrInternal_v0_24__pxrReserved__21pxr_double_conversionL10TrimAndCutENS0_6VectorIKcEEiPciPS3_Pi(ptr %0, i32 %1, i32 noundef %2, ptr noundef %3, i32 noundef %4, ptr noundef %5, ptr noundef %6) #0 {
  %8 = alloca %"class.pxrInternal_v0_24__pxrReserved__::pxr_double_conversion::Vector", align 8
  %9 = alloca i32, align 4
  %10 = alloca ptr, align 8
  %11 = alloca i32, align 4
  %12 = alloca ptr, align 8
  %13 = alloca ptr, align 8
  %14 = alloca %"class.pxrInternal_v0_24__pxrReserved__::pxr_double_conversion::Vector", align 8
  %15 = alloca %"class.pxrInternal_v0_24__pxrReserved__::pxr_double_conversion::Vector", align 8
  %16 = alloca { ptr, i32 }, align 8
  %17 = alloca %"class.pxrInternal_v0_24__pxrReserved__::pxr_double_conversion::Vector", align 8
  %18 = alloca %"class.pxrInternal_v0_24__pxrReserved__::pxr_double_conversion::Vector", align 8
  %19 = alloca { ptr, i32 }, align 8
  %20 = alloca %"class.pxrInternal_v0_24__pxrReserved__::pxr_double_conversion::Vector", align 8
  %21 = alloca %"class.pxrInternal_v0_24__pxrReserved__::pxr_double_conversion::Vector", align 8
  %22 = getelementptr inbounds nuw { ptr, i32 }, ptr %8, i32 0, i32 0
  store ptr %0, ptr %22, align 8
  %23 = getelementptr inbounds nuw { ptr, i32 }, ptr %8, i32 0, i32 1
  store i32 %1, ptr %23, align 8
  store i32 %2, ptr %9, align 4
  store ptr %3, ptr %10, align 8
  store i32 %4, ptr %11, align 4
  store ptr %5, ptr %12, align 8
  store ptr %6, ptr %13, align 8
  call void @llvm.memcpy.p0.p0.i64(ptr align 8 %15, ptr align 8 %8, i64 16, i1 false)
  %24 = getelementptr inbounds nuw { ptr, i32 }, ptr %15, i32 0, i32 0
  %25 = load ptr, ptr %24, align 8
  %26 = getelementptr inbounds nuw { ptr, i32 }, ptr %15, i32 0, i32 1
  %27 = load i32, ptr %26, align 8
  %28 = call { ptr, i32 } @_ZN32pxrInternal_v0_24__pxrReserved__21pxr_double_conversionL16TrimLeadingZerosENS0_6VectorIKcEE(ptr %25, i32 %27)
  store { ptr, i32 } %28, ptr %16, align 8
  call void @llvm.memcpy.p0.p0.i64(ptr align 8 %14, ptr align 8 %16, i64 12, i1 false)
  call void @llvm.memcpy.p0.p0.i64(ptr align 8 %18, ptr align 8 %14, i64 16, i1 false)
  %29 = getelementptr inbounds nuw { ptr, i32 }, ptr %18, i32 0, i32 0
  %30 = load ptr, ptr %29, align 8
  %31 = getelementptr inbounds nuw { ptr, i32 }, ptr %18, i32 0, i32 1
  %32 = load i32, ptr %31, align 8
  %33 = call { ptr, i32 } @_ZN32pxrInternal_v0_24__pxrReserved__21pxr_double_conversion17TrimTrailingZerosENS0_6VectorIKcEE(ptr %30, i32 %32)
  store { ptr, i32 } %33, ptr %19, align 8
  call void @llvm.memcpy.p0.p0.i64(ptr align 8 %17, ptr align 8 %19, i64 12, i1 false)
  %34 = call noundef i32 @_ZNK32pxrInternal_v0_24__pxrReserved__21pxr_double_conversion6VectorIKcE6lengthEv(ptr noundef nonnull align 8 dereferenceable(12) %14)
  %35 = call noundef i32 @_ZNK32pxrInternal_v0_24__pxrReserved__21pxr_double_conversion6VectorIKcE6lengthEv(ptr noundef nonnull align 8 dereferenceable(12) %17)
  %36 = sub nsw i32 %34, %35
  %37 = load i32, ptr %9, align 4
  %38 = add nsw i32 %37, %36
  store i32 %38, ptr %9, align 4
  %39 = call noundef i32 @_ZNK32pxrInternal_v0_24__pxrReserved__21pxr_double_conversion6VectorIKcE6lengthEv(ptr noundef nonnull align 8 dereferenceable(12) %17)
  %40 = icmp sgt i32 %39, 780
  br i1 %40, label %41, label %51

41:                                               ; preds = %7
  call void @llvm.memcpy.p0.p0.i64(ptr align 8 %20, ptr align 8 %17, i64 16, i1 false)
  %42 = load i32, ptr %9, align 4
  %43 = load ptr, ptr %10, align 8
  %44 = load ptr, ptr %13, align 8
  %45 = getelementptr inbounds nuw { ptr, i32 }, ptr %20, i32 0, i32 0
  %46 = load ptr, ptr %45, align 8
  %47 = getelementptr inbounds nuw { ptr, i32 }, ptr %20, i32 0, i32 1
  %48 = load i32, ptr %47, align 8
  call void @_ZN32pxrInternal_v0_24__pxrReserved__21pxr_double_conversionL25CutToMaxSignificantDigitsENS0_6VectorIKcEEiPcPi(ptr %46, i32 %48, i32 noundef %42, ptr noundef %43, ptr noundef %44)
  %49 = load ptr, ptr %10, align 8
  call void @_ZN32pxrInternal_v0_24__pxrReserved__21pxr_double_conversion6VectorIKcEC2EPS2_i(ptr noundef nonnull align 8 dereferenceable(12) %21, ptr noundef %49, i32 noundef 780)
  %50 = load ptr, ptr %12, align 8
  call void @llvm.memcpy.p0.p0.i64(ptr align 8 %50, ptr align 8 %21, i64 12, i1 false)
  br label %55

51:                                               ; preds = %7
  %52 = load ptr, ptr %12, align 8
  call void @llvm.memcpy.p0.p0.i64(ptr align 8 %52, ptr align 8 %17, i64 12, i1 false)
  %53 = load i32, ptr %9, align 4
  %54 = load ptr, ptr %13, align 8
  store i32 %53, ptr %54, align 4
  br label %55

55:                                               ; preds = %51, %41
  ret void
}

; Function Attrs: mustprogress nounwind uwtable
define linkonce_odr void @_ZN32pxrInternal_v0_24__pxrReserved__21pxr_double_conversion6VectorIKcEC2Ev(ptr noundef nonnull align 8 dereferenceable(12) %0) unnamed_addr #2 comdat align 2 {
  %2 = alloca ptr, align 8
  store ptr %0, ptr %2, align 8
  %3 = load ptr, ptr %2, align 8
  %4 = getelementptr inbounds nuw %"class.pxrInternal_v0_24__pxrReserved__::pxr_double_conversion::Vector", ptr %3, i32 0, i32 0
  store ptr null, ptr %4, align 8
  %5 = getelementptr inbounds nuw %"class.pxrInternal_v0_24__pxrReserved__::pxr_double_conversion::Vector", ptr %3, i32 0, i32 1
  store i32 0, ptr %5, align 8
  ret void
}

; Function Attrs: mustprogress uwtable
define noundef float @_ZN32pxrInternal_v0_24__pxrReserved__21pxr_double_conversion6StrtofENS0_6VectorIKcEEi(ptr %0, i32 %1, i32 noundef %2) #0 {
  %4 = alloca %"class.pxrInternal_v0_24__pxrReserved__::pxr_double_conversion::Vector", align 8
  %5 = alloca i32, align 4
  %6 = alloca [780 x i8], align 16
  %7 = alloca %"class.pxrInternal_v0_24__pxrReserved__::pxr_double_conversion::Vector", align 8
  %8 = alloca i32, align 4
  %9 = alloca %"class.pxrInternal_v0_24__pxrReserved__::pxr_double_conversion::Vector", align 8
  %10 = alloca %"class.pxrInternal_v0_24__pxrReserved__::pxr_double_conversion::Vector", align 8
  %11 = getelementptr inbounds nuw { ptr, i32 }, ptr %4, i32 0, i32 0
  store ptr %0, ptr %11, align 8
  %12 = getelementptr inbounds nuw { ptr, i32 }, ptr %4, i32 0, i32 1
  store i32 %1, ptr %12, align 8
  store i32 %2, ptr %5, align 4
  call void @_ZN32pxrInternal_v0_24__pxrReserved__21pxr_double_conversion6VectorIKcEC2Ev(ptr noundef nonnull align 8 dereferenceable(12) %7)
  call void @llvm.memcpy.p0.p0.i64(ptr align 8 %9, ptr align 8 %4, i64 16, i1 false)
  %13 = load i32, ptr %5, align 4
  %14 = getelementptr inbounds [780 x i8], ptr %6, i64 0, i64 0
  %15 = getelementptr inbounds nuw { ptr, i32 }, ptr %9, i32 0, i32 0
  %16 = load ptr, ptr %15, align 8
  %17 = getelementptr inbounds nuw { ptr, i32 }, ptr %9, i32 0, i32 1
  %18 = load i32, ptr %17, align 8
  call void @_ZN32pxrInternal_v0_24__pxrReserved__21pxr_double_conversionL10TrimAndCutENS0_6VectorIKcEEiPciPS3_Pi(ptr %16, i32 %18, i32 noundef %13, ptr noundef %14, i32 noundef 780, ptr noundef %7, ptr noundef %8)
  %19 = load i32, ptr %8, align 4
  store i32 %19, ptr %5, align 4
  call void @llvm.memcpy.p0.p0.i64(ptr align 8 %10, ptr align 8 %7, i64 16, i1 false)
  %20 = load i32, ptr %5, align 4
  %21 = getelementptr inbounds nuw { ptr, i32 }, ptr %10, i32 0, i32 0
  %22 = load ptr, ptr %21, align 8
  %23 = getelementptr inbounds nuw { ptr, i32 }, ptr %10, i32 0, i32 1
  %24 = load i32, ptr %23, align 8
  %25 = call noundef float @_ZN32pxrInternal_v0_24__pxrReserved__21pxr_double_conversion13StrtofTrimmedENS0_6VectorIKcEEi(ptr %22, i32 %24, i32 noundef %20)
  ret float %25
}